target datalayout = "e-m:e-p270:32:32-p271:32:32-p272:64:64-i64:64-i128:128-f80:128-n8:16:32:64-S128"
target triple = "x86_64-pc-linux-gnu"

; Function Attrs: nounwind uwtable
define ptr @QuadTree_add(ptr noundef %0, ptr noundef %1, double noundef %2, i32 noundef %3) #0 {
  %5 = alloca ptr, align 8
  %6 = alloca ptr, align 8
  %7 = alloca ptr, align 8
  %8 = alloca double, align 8
  %9 = alloca i32, align 4
  store ptr %0, ptr %6, align 8, !tbaa !3
  store ptr %1, ptr %7, align 8, !tbaa !10
  store double %2, ptr %8, align 8, !tbaa !8
  store i32 %3, ptr %9, align 4, !tbaa !12
  %10 = load ptr, ptr %6, align 8, !tbaa !3
  %11 = icmp ne ptr %10, null
  br i1 %11, label %14, label %12

12:                                               ; preds = %4
  %13 = load ptr, ptr %6, align 8, !tbaa !3
  store ptr %13, ptr %5, align 8
  br label %20

14:                                               ; preds = %4
  %15 = load ptr, ptr %6, align 8, !tbaa !3
  %16 = load ptr, ptr %7, align 8, !tbaa !10
  %17 = load double, ptr %8, align 8, !tbaa !8
  %18 = load i32, ptr %9, align 4, !tbaa !12
  %19 = call ptr @QuadTree_add_internal(ptr noundef %15, ptr noundef %16, double noundef %17, i32 noundef %18, i32 noundef 0)
  store ptr %19, ptr %5, align 8
  br label %20

20:                                               ; preds = %14, %12
  %21 = load ptr, ptr %5, align 8
  ret ptr %21
}