; Function Attrs: nounwind uwtable
define noundef ptr @QuadTree_add(ptr noundef returned captures(address_is_null, ret: address, provenance) %0, ptr noundef readonly captures(none) %1, double noundef %2, i32 noundef %3) local_unnamed_addr #0 {
  %.not = icmp eq ptr %0, null
  br i1 %.not, label %7, label %5

5:                                                ; preds = %4
  %6 = tail call fastcc ptr @QuadTree_add_internal(ptr noundef nonnull %0, ptr noundef %1, double noundef %2, i32 noundef %3, i32 noundef 0)
  br label %7

7:                                                ; preds = %4, %5
  ret ptr %0
}